; Function Attrs: mustprogress null_pointer_is_valid sspstrong uwtable
define void @_ZN7IOGraph11setIntervalEi(ptr noundef align 8 captures(none) dereferenceable_or_null(252) initializes((196, 200)) %0, i32 noundef %1) local_unnamed_addr #2 align 2 {
  %3 = getelementptr inbounds nuw i8, ptr %0, i64 196
  store i32 %1, ptr %3, align 4
  %4 = getelementptr inbounds nuw i8, ptr %0, i64 96
  %5 = load ptr, ptr %4, align 8
  %.not = icmp eq ptr %5, null
  br i1 %.not, label %9, label %6

6:                                                ; preds = %2
  %7 = sitofp i32 %1 to double
  %8 = fdiv double %7, 1.000000e+06
  tail call void @_ZN7QCPBars8setWidthEd(ptr noundef nonnull align 8 dereferenceable_or_null(280) %5, double noundef %8)
  br label %9

9:                                                ; preds = %6, %2
  ret void
}